; Function Attrs: mustprogress nofree norecurse nosync nounwind willreturn memory(read, inaccessiblemem: none) uwtable
define dso_local noundef i64 @_ZNK4i18n12phonenumbers11StringPiece5rfindEcm(ptr noundef nonnull readonly align 8 captures(none) dereferenceable(16) %0, i8 noundef signext %1, i64 noundef %2) local_unnamed_addr #6 align 2 {
  %4 = getelementptr inbounds nuw i8, ptr %0, i64 8
  %5 = load i64, ptr %4, align 8, !tbaa !11
  %6 = icmp eq i64 %5, 0
  br i1 %6, label %.loopexit, label %7

7:                                                ; preds = %3
  %8 = add i64 %5, -1
  %.sroa.speculated = tail call i64 @llvm.umin.i64(i64 %8, i64 %2)
  %9 = load ptr, ptr %0, align 8, !tbaa !4
  %10 = getelementptr inbounds nuw i8, ptr %9, i64 %.sroa.speculated
  %11 = load i8, ptr %10, align 1, !tbaa !15
  %12 = icmp eq i8 %11, %1
  br i1 %12, label %.loopexit, label %.lr.ph

.lr.ph:                                           ; preds = %7, %14
  %.0712 = phi i64 [ %15, %14 ], [ %.sroa.speculated, %7 ]
  %13 = icmp eq i64 %.0712, 0
  br i1 %13, label %.loopexit, label %14

14:                                               ; preds = %.lr.ph
  %15 = add i64 %.0712, -1
  %16 = getelementptr inbounds nuw i8, ptr %9, i64 %15
  %17 = load i8, ptr %16, align 1, !tbaa !15
  %18 = icmp eq i8 %17, %1
  br i1 %18, label %.loopexit, label %.lr.ph, !llvm.loop !20

.loopexit:                                        ; preds = %.lr.ph, %14, %7, %3
  %.08 = phi i64 [ -1, %3 ], [ %.sroa.speculated, %7 ], [ -1, %.lr.ph ], [ %15, %14 ]
  ret i64 %.08
}